; Function Attrs: mustprogress uwtable
define hidden noundef ptr @_ZNK2cv8tinyxml210XMLComment12ShallowCloneEPNS0_11XMLDocumentE(ptr noundef nonnull align 8 captures(none) dereferenceable(88) %0, ptr noundef %1) unnamed_addr #4 align 2 {
  %.not = icmp eq ptr %1, null
  %3 = getelementptr inbounds nuw i8, ptr %0, i64 8
  %4 = load ptr, ptr %3, align 8
  %.0 = select i1 %.not, ptr %4, ptr %1
  %5 = getelementptr inbounds nuw i8, ptr %0, i64 24
  %6 = tail call noundef ptr @_ZN2cv8tinyxml27StrPair6GetStrEv(ptr noundef nonnull align 8 dereferenceable(24) %5)
  %7 = getelementptr inbounds nuw i8, ptr %.0, i64 512
  %8 = tail call noundef ptr @_ZN2cv8tinyxml28MemPoolTILi88EE5AllocEv(ptr noundef nonnull align 8 dereferenceable(128) %7)
  %9 = getelementptr inbounds nuw i8, ptr %8, i64 8
  store ptr %.0, ptr %9, align 8, !tbaa !33
  %10 = getelementptr inbounds nuw i8, ptr %8, i64 16
  store ptr null, ptr %10, align 8, !tbaa !38
  %11 = getelementptr inbounds nuw i8, ptr %8, i64 24
  %12 = getelementptr inbounds nuw i8, ptr %8, i64 32
  %13 = getelementptr inbounds nuw i8, ptr %8, i64 48
  tail call void @llvm.memset.p0.i64(ptr noundef nonnull align 8 dereferenceable(32) %13, i8 0, i64 32, i1 false)
  store ptr getelementptr inbounds nuw inrange(-16, 144) (i8, ptr @_ZTVN2cv8tinyxml210XMLCommentE, i64 16), ptr %8, align 8, !tbaa !39
  %14 = getelementptr inbounds nuw i8, ptr %8, i64 80
  store ptr %7, ptr %14, align 8, !tbaa !41
  store i32 0, ptr %11, align 8, !tbaa !3
  tail call void @llvm.memset.p0.i64(ptr noundef nonnull align 8 dereferenceable(16) %12, i8 0, i64 16, i1 false)
  %15 = tail call i64 @strlen(ptr noundef nonnull readonly dereferenceable(1) %6) #26
  %16 = add i64 %15, 1
  %17 = tail call noalias noundef nonnull ptr @_Znam(i64 noundef %16) #27
  store ptr %17, ptr %12, align 8, !tbaa !10
  tail call void @llvm.memcpy.p0.p0.i64(ptr nonnull align 1 %17, ptr nonnull readonly align 1 %6, i64 %16, i1 false)
  %18 = getelementptr inbounds nuw i8, ptr %17, i64 %15
  %19 = getelementptr inbounds nuw i8, ptr %8, i64 40
  store ptr %18, ptr %19, align 8, !tbaa !11
  store i32 512, ptr %11, align 8, !tbaa !3
  ret ptr %8
}